target datalayout = "e-m:e-p270:32:32-p271:32:32-p272:64:64-i64:64-i128:128-f80:128-n8:16:32:64-S128"
target triple = "x86_64-pc-linux-gnu"

%struct.redisObject = type { i32, i32, ptr }
%struct.zset = type { ptr, ptr }

@.str.1 = private unnamed_addr constant [9 x i8] c"t_zset.c\00", align 1
@.str.9 = private unnamed_addr constant [28 x i8] c"Unknown sorted set encoding\00", align 1
@.str.79 = private unnamed_addr constant [7 x i8] c"retval\00", align 1

; Function Attrs: nounwind uwtable
define internal i32 @zsetRemoveFromSkiplist(ptr noundef %0, ptr noundef %1) #0 {
  %3 = alloca i32, align 4
  %4 = alloca ptr, align 8
  %5 = alloca ptr, align 8
  %6 = alloca ptr, align 8
  %7 = alloca double, align 8
  %8 = alloca i32, align 4
  %9 = alloca i32, align 4
  store ptr %0, ptr %4, align 8, !tbaa !137
  store ptr %1, ptr %5, align 8, !tbaa !11
  call void @llvm.lifetime.start.p0(i64 8, ptr %6) #12
  call void @llvm.lifetime.start.p0(i64 8, ptr %7) #12
  %10 = load ptr, ptr %4, align 8, !tbaa !137
  %11 = getelementptr inbounds nuw %struct.zset, ptr %10, i32 0, i32 0
  %12 = load ptr, ptr %11, align 8, !tbaa !139
  %13 = load ptr, ptr %5, align 8, !tbaa !11
  %14 = call ptr @dictUnlink(ptr noundef %12, ptr noundef %13)
  store ptr %14, ptr %6, align 8, !tbaa !142
  %15 = load ptr, ptr %6, align 8, !tbaa !142
  %16 = icmp ne ptr %15, null
  br i1 %16, label %17, label %43

17:                                               ; preds = %2
  %18 = load ptr, ptr %6, align 8, !tbaa !142
  %19 = call ptr @dictGetVal(ptr noundef %18)
  %20 = load double, ptr %19, align 8, !tbaa !9
  store double %20, ptr %7, align 8, !tbaa !9
  %21 = load ptr, ptr %4, align 8, !tbaa !137
  %22 = getelementptr inbounds nuw %struct.zset, ptr %21, i32 0, i32 0
  %23 = load ptr, ptr %22, align 8, !tbaa !139
  %24 = load ptr, ptr %6, align 8, !tbaa !142
  call void @dictFreeUnlinkedEntry(ptr noundef %23, ptr noundef %24)
  call void @llvm.lifetime.start.p0(i64 4, ptr %8) #12
  %25 = load ptr, ptr %4, align 8, !tbaa !137
  %26 = getelementptr inbounds nuw %struct.zset, ptr %25, i32 0, i32 1
  %27 = load ptr, ptr %26, align 8, !tbaa !112
  %28 = load double, ptr %7, align 8, !tbaa !9
  %29 = load ptr, ptr %5, align 8, !tbaa !11
  %30 = call i32 @zslDelete(ptr noundef %27, double noundef %28, ptr noundef %29, ptr noundef null)
  store i32 %30, ptr %8, align 4, !tbaa !5
  %31 = load i32, ptr %8, align 4, !tbaa !5
  %32 = icmp ne i32 %31, 0
  %33 = xor i1 %32, true
  %34 = xor i1 %33, true
  %35 = zext i1 %34 to i32
  %36 = sext i32 %35 to i64
  %37 = call i64 @llvm.expect.i64(i64 %36, i64 1)
  %38 = icmp ne i64 %37, 0
  br i1 %38, label %39, label %40

39:                                               ; preds = %17
  br label %42

40:                                               ; preds = %17
  call void @_serverAssert(ptr noundef @.str.79, ptr noundef @.str.1, i32 noundef 1563)
  call void @abort() #14
  unreachable

41:                                               ; No predecessors!
  br label %42

42:                                               ; preds = %41, %39
  store i32 1, ptr %3, align 4
  store i32 1, ptr %9, align 4
  call void @llvm.lifetime.end.p0(i64 4, ptr %8) #12
  br label %44

43:                                               ; preds = %2
  store i32 0, ptr %3, align 4
  store i32 1, ptr %9, align 4
  br label %44

44:                                               ; preds = %43, %42
  call void @llvm.lifetime.end.p0(i64 8, ptr %7) #12
  call void @llvm.lifetime.end.p0(i64 8, ptr %6) #12
  %45 = load i32, ptr %3, align 4
  ret i32 %45
}

; Function Attrs: nounwind uwtable
define dso_local ptr @zzlDelete(ptr noundef %0, ptr noundef %1) #0 {
  %3 = alloca ptr, align 8
  %4 = alloca ptr, align 8
  store ptr %0, ptr %3, align 8, !tbaa !11
  store ptr %1, ptr %4, align 8, !tbaa !11
  %5 = load ptr, ptr %3, align 8, !tbaa !11
  %6 = call ptr @lpDeleteRangeWithEntry(ptr noundef %5, ptr noundef %4, i64 noundef 2)
  ret ptr %6
}

; Function Attrs: nounwind uwtable
define dso_local i32 @zsetDel(ptr noundef %0, ptr noundef %1) #0 {
  %3 = alloca i32, align 4
  %4 = alloca ptr, align 8
  %5 = alloca ptr, align 8
  %6 = alloca ptr, align 8
  %7 = alloca i32, align 4
  %8 = alloca ptr, align 8
  store ptr %0, ptr %4, align 8, !tbaa !78
  store ptr %1, ptr %5, align 8, !tbaa !11
  %9 = load ptr, ptr %4, align 8, !tbaa !78
  %10 = load i32, ptr %9, align 8
  %11 = lshr i32 %10, 4
  %12 = and i32 %11, 15
  %13 = icmp eq i32 %12, 11
  br i1 %13, label %14, label %33

14:                                               ; preds = %2
  call void @llvm.lifetime.start.p0(i64 8, ptr %6) #12
  %15 = load ptr, ptr %4, align 8, !tbaa !78
  %16 = getelementptr inbounds nuw %struct.redisObject, ptr %15, i32 0, i32 2
  %17 = load ptr, ptr %16, align 8, !tbaa !84
  %18 = load ptr, ptr %5, align 8, !tbaa !11
  %19 = call ptr @zzlFind(ptr noundef %17, ptr noundef %18, ptr noundef null)
  store ptr %19, ptr %6, align 8, !tbaa !11
  %20 = icmp ne ptr %19, null
  br i1 %20, label %21, label %29

21:                                               ; preds = %14
  %22 = load ptr, ptr %4, align 8, !tbaa !78
  %23 = getelementptr inbounds nuw %struct.redisObject, ptr %22, i32 0, i32 2
  %24 = load ptr, ptr %23, align 8, !tbaa !84
  %25 = load ptr, ptr %6, align 8, !tbaa !11
  %26 = call ptr @zzlDelete(ptr noundef %24, ptr noundef %25)
  %27 = load ptr, ptr %4, align 8, !tbaa !78
  %28 = getelementptr inbounds nuw %struct.redisObject, ptr %27, i32 0, i32 2
  store ptr %26, ptr %28, align 8, !tbaa !84
  store i32 1, ptr %3, align 4
  store i32 1, ptr %7, align 4
  br label %30

29:                                               ; preds = %14
  store i32 0, ptr %7, align 4
  br label %30

30:                                               ; preds = %29, %21
  call void @llvm.lifetime.end.p0(i64 8, ptr %6) #12
  %31 = load i32, ptr %7, align 4
  switch i32 %31, label %57 [
    i32 0, label %32
    i32 1, label %55
  ]

32:                                               ; preds = %30
  br label %54

33:                                               ; preds = %2
  %34 = load ptr, ptr %4, align 8, !tbaa !78
  %35 = load i32, ptr %34, align 8
  %36 = lshr i32 %35, 4
  %37 = and i32 %36, 15
  %38 = icmp eq i32 %37, 7
  br i1 %38, label %39, label %52

39:                                               ; preds = %33
  call void @llvm.lifetime.start.p0(i64 8, ptr %8) #12
  %40 = load ptr, ptr %4, align 8, !tbaa !78
  %41 = getelementptr inbounds nuw %struct.redisObject, ptr %40, i32 0, i32 2
  %42 = load ptr, ptr %41, align 8, !tbaa !84
  store ptr %42, ptr %8, align 8, !tbaa !137
  %43 = load ptr, ptr %8, align 8, !tbaa !137
  %44 = load ptr, ptr %5, align 8, !tbaa !11
  %45 = call i32 @zsetRemoveFromSkiplist(ptr noundef %43, ptr noundef %44)
  %46 = icmp ne i32 %45, 0
  br i1 %46, label %47, label %48

47:                                               ; preds = %39
  store i32 1, ptr %3, align 4
  store i32 1, ptr %7, align 4
  br label %49

48:                                               ; preds = %39
  store i32 0, ptr %7, align 4
  br label %49

49:                                               ; preds = %48, %47
  call void @llvm.lifetime.end.p0(i64 8, ptr %8) #12
  %50 = load i32, ptr %7, align 4
  switch i32 %50, label %57 [
    i32 0, label %51
    i32 1, label %55
  ]

51:                                               ; preds = %49
  br label %53

52:                                               ; preds = %33
  call void (ptr, i32, ptr, ...) @_serverPanic(ptr noundef @.str.1, i32 noundef 1587, ptr noundef @.str.9)
  call void @abort() #14
  unreachable

53:                                               ; preds = %51
  br label %54

54:                                               ; preds = %53, %32
  store i32 0, ptr %3, align 4
  br label %55

55:                                               ; preds = %54, %49, %30
  %56 = load i32, ptr %3, align 4
  ret i32 %56

57:                                               ; preds = %49, %30
  unreachable
}