; Function Attrs: nounwind uwtable
define dso_local range(i32 0, 2) i32 @zsetDel(ptr noundef captures(none) %0, ptr noundef %1) local_unnamed_addr #0 {
  %3 = alloca ptr, align 8
  %4 = load i32, ptr %0, align 8
  %5 = lshr i32 %4, 4
  %6 = and i32 %5, 15
  switch i32 %6, label %27 [
    i32 11, label %7
    i32 7, label %14
  ]

7:                                                ; preds = %2
  %8 = getelementptr inbounds nuw i8, ptr %0, i64 8
  %9 = load ptr, ptr %8, align 8, !tbaa !75
  %10 = tail call ptr @zzlFind(ptr noundef %9, ptr noundef %1, ptr noundef null)
  %.not15.not = icmp eq ptr %10, null
  br i1 %.not15.not, label %.thread, label %11

11:                                               ; preds = %7
  %12 = load ptr, ptr %8, align 8, !tbaa !75
  call void @llvm.lifetime.start.p0(i64 8, ptr nonnull %3)
  store ptr %10, ptr %3, align 8, !tbaa !9
  %13 = call ptr @lpDeleteRangeWithEntry(ptr noundef %12, ptr noundef nonnull %3, i64 noundef 2) #18
  call void @llvm.lifetime.end.p0(i64 8, ptr nonnull %3)
  store ptr %13, ptr %8, align 8, !tbaa !75
  br label %.thread

14:                                               ; preds = %2
  %15 = getelementptr inbounds nuw i8, ptr %0, i64 8
  %16 = load ptr, ptr %15, align 8, !tbaa !75
  %17 = load ptr, ptr %16, align 8, !tbaa !125
  %18 = tail call ptr @dictUnlink(ptr noundef %17, ptr noundef %1) #18
  %.not.i = icmp eq ptr %18, null
  br i1 %.not.i, label %.thread, label %19

19:                                               ; preds = %14
  %20 = tail call ptr @dictGetVal(ptr noundef nonnull %18) #18
  %21 = load double, ptr %20, align 8, !tbaa !5
  %22 = load ptr, ptr %16, align 8, !tbaa !125
  tail call void @dictFreeUnlinkedEntry(ptr noundef %22, ptr noundef nonnull %18) #18
  %23 = getelementptr inbounds nuw i8, ptr %16, i64 8
  %24 = load ptr, ptr %23, align 8, !tbaa !97
  %25 = tail call i32 @zslDelete(ptr noundef %24, double noundef %21, ptr noundef %1, ptr noundef null)
  %.not11.i = icmp eq i32 %25, 0
  br i1 %.not11.i, label %26, label %.thread, !prof !40

26:                                               ; preds = %19
  tail call void @_serverAssert(ptr noundef nonnull @.str.79, ptr noundef nonnull @.str.1, i32 noundef 1563) #18
  tail call void @abort() #19
  unreachable

27:                                               ; preds = %2
  tail call void (ptr, i32, ptr, ...) @_serverPanic(ptr noundef nonnull @.str.1, i32 noundef 1587, ptr noundef nonnull @.str.9) #18
  tail call void @abort() #19
  unreachable

.thread:                                          ; preds = %19, %14, %7, %11
  %.1 = phi i32 [ 1, %11 ], [ 0, %7 ], [ 0, %14 ], [ 1, %19 ]
  ret i32 %.1
}